target datalayout = "e-m:e-p270:32:32-p271:32:32-p272:64:64-i64:64-i128:128-f80:128-n8:16:32:64-S128"
target triple = "x86_64-pc-linux-gnu"

%struct.ident_t = type { i32, i32, i32, i32, ptr }
%"class.ncnn::StatisticsPooling" = type <{ %"class.ncnn::Layer", i32, [4 x i8] }>
%"class.ncnn::Layer" = type { ptr, i8, i8, i8, i8, i8, i8, i8, i8, i8, i8, i8, i8, i8, i8, i8, i8, i8, i8, i8, i8, i32, ptr, i32, %"class.std::__cxx11::basic_string", %"class.std::__cxx11::basic_string", %"class.std::vector", %"class.std::vector", %"class.std::vector.3", %"class.std::vector.3" }
%"class.std::__cxx11::basic_string" = type { %"struct.std::__cxx11::basic_string<char>::_Alloc_hider", i64, %union.anon }
%"struct.std::__cxx11::basic_string<char>::_Alloc_hider" = type { ptr }
%union.anon = type { i64, [8 x i8] }
%"class.std::vector" = type { %"struct.std::_Vector_base" }
%"struct.std::_Vector_base" = type { %"struct.std::_Vector_base<int, std::allocator<int>>::_Vector_impl" }
%"struct.std::_Vector_base<int, std::allocator<int>>::_Vector_impl" = type { %"struct.std::_Vector_base<int, std::allocator<int>>::_Vector_impl_data" }
%"struct.std::_Vector_base<int, std::allocator<int>>::_Vector_impl_data" = type { ptr, ptr, ptr }
%"class.std::vector.3" = type { %"struct.std::_Vector_base.4" }
%"struct.std::_Vector_base.4" = type { %"struct.std::_Vector_base<ncnn::Mat, std::allocator<ncnn::Mat>>::_Vector_impl" }
%"struct.std::_Vector_base<ncnn::Mat, std::allocator<ncnn::Mat>>::_Vector_impl" = type { %"struct.std::_Vector_base<ncnn::Mat, std::allocator<ncnn::Mat>>::_Vector_impl_data" }
%"struct.std::_Vector_base<ncnn::Mat, std::allocator<ncnn::Mat>>::_Vector_impl_data" = type { ptr, ptr, ptr }
%"class.ncnn::Mat" = type { ptr, ptr, i64, i32, ptr, i32, i32, i32, i32, i32, i64 }
%"class.ncnn::Option" = type { i8, i32, ptr, ptr, i32, i8, i8, i8, i8, i8, i8, i8, i8, i8, i8, i8, i8, i8, i8, i8, i8, i8, i8, i8, i8, i32, i8, i8, i8, i8, i8, i8, i8, i8, i8, i8, i8, i8 }

@2 = private unnamed_addr constant %struct.ident_t { i32 0, i32 2, i32 0, i32 22, ptr @0 }, align 8

; Function Attrs: mustprogress uwtable
define hidden noundef i32 @_ZNK4ncnn17StatisticsPooling7forwardERKNS_3MatERS1_RKNS_6OptionE(ptr noundef nonnull align 8 dereferenceable(212) %0, ptr noundef nonnull align 8 dereferenceable(72) %1, ptr noundef nonnull align 8 dereferenceable(72) %2, ptr noundef nonnull align 8 dereferenceable(64) %3) unnamed_addr #2 align 2 {
  %5 = alloca ptr, align 8
  %6 = alloca ptr, align 8
  %7 = alloca ptr, align 8
  %8 = alloca ptr, align 8
  %9 = alloca i32, align 4
  %10 = alloca i32, align 4
  %11 = alloca i32, align 4
  %12 = alloca i32, align 4
  %13 = alloca i64, align 8
  %14 = alloca i32, align 4
  %15 = call i32 @__kmpc_global_thread_num(ptr @2)
  store ptr %0, ptr %5, align 8, !tbaa !4
  store ptr %1, ptr %6, align 8, !tbaa !30
  store ptr %2, ptr %7, align 8, !tbaa !30
  store ptr %3, ptr %8, align 8, !tbaa !31
  %16 = load ptr, ptr %5, align 8
  call void @llvm.lifetime.start.p0(i64 4, ptr %9) #6
  %17 = load ptr, ptr %6, align 8, !tbaa !30
  %18 = getelementptr inbounds nuw %"class.ncnn::Mat", ptr %17, i32 0, i32 6
  %19 = load i32, ptr %18, align 4, !tbaa !33
  store i32 %19, ptr %9, align 4, !tbaa !36
  call void @llvm.lifetime.start.p0(i64 4, ptr %10) #6
  %20 = load ptr, ptr %6, align 8, !tbaa !30
  %21 = getelementptr inbounds nuw %"class.ncnn::Mat", ptr %20, i32 0, i32 7
  %22 = load i32, ptr %21, align 8, !tbaa !37
  store i32 %22, ptr %10, align 4, !tbaa !36
  call void @llvm.lifetime.start.p0(i64 4, ptr %11) #6
  %23 = load ptr, ptr %6, align 8, !tbaa !30
  %24 = getelementptr inbounds nuw %"class.ncnn::Mat", ptr %23, i32 0, i32 9
  %25 = load i32, ptr %24, align 8, !tbaa !38
  store i32 %25, ptr %11, align 4, !tbaa !36
  call void @llvm.lifetime.start.p0(i64 4, ptr %12) #6
  %26 = load i32, ptr %9, align 4, !tbaa !36
  %27 = load i32, ptr %10, align 4, !tbaa !36
  %28 = mul nsw i32 %26, %27
  store i32 %28, ptr %12, align 4, !tbaa !36
  call void @llvm.lifetime.start.p0(i64 8, ptr %13) #6
  %29 = load ptr, ptr %6, align 8, !tbaa !30
  %30 = getelementptr inbounds nuw %"class.ncnn::Mat", ptr %29, i32 0, i32 2
  %31 = load i64, ptr %30, align 8, !tbaa !39
  store i64 %31, ptr %13, align 8, !tbaa !40
  call void @llvm.lifetime.start.p0(i64 4, ptr %14) #6
  %32 = load i32, ptr %11, align 4, !tbaa !36
  store i32 %32, ptr %14, align 4, !tbaa !36
  %33 = getelementptr inbounds nuw %"class.ncnn::StatisticsPooling", ptr %16, i32 0, i32 1
  %34 = load i32, ptr %33, align 8, !tbaa !11
  %35 = icmp ne i32 %34, 0
  br i1 %35, label %36, label %39

36:                                               ; preds = %4
  %37 = load i32, ptr %14, align 4, !tbaa !36
  %38 = mul nsw i32 %37, 2
  store i32 %38, ptr %14, align 4, !tbaa !36
  br label %39

39:                                               ; preds = %36, %4
  %40 = load ptr, ptr %7, align 8, !tbaa !30
  %41 = load i32, ptr %14, align 4, !tbaa !36
  %42 = load i64, ptr %13, align 8, !tbaa !40
  %43 = load ptr, ptr %8, align 8, !tbaa !31
  %44 = getelementptr inbounds nuw %"class.ncnn::Option", ptr %43, i32 0, i32 2
  %45 = load ptr, ptr %44, align 8, !tbaa !41
  call void @_ZN4ncnn3Mat6createEimPNS_9AllocatorE(ptr noundef nonnull align 8 dereferenceable(72) %40, i32 noundef %41, i64 noundef %42, ptr noundef %45)
  %46 = load ptr, ptr %8, align 8, !tbaa !31
  %47 = getelementptr inbounds nuw %"class.ncnn::Option", ptr %46, i32 0, i32 1
  %48 = load i32, ptr %47, align 4, !tbaa !43
  call void @__kmpc_push_num_threads(ptr @2, i32 %15, i32 %48)
  %49 = load ptr, ptr %6, align 8, !tbaa !30
  %50 = load ptr, ptr %7, align 8, !tbaa !30
  call void (ptr, i32, ptr, ...) @__kmpc_fork_call(ptr @2, i32 6, ptr @_ZNK4ncnn17StatisticsPooling7forwardERKNS_3MatERS1_RKNS_6OptionE.omp_outlined, ptr %11, ptr %49, ptr %12, ptr %50, ptr %9, ptr %10)
  %51 = load ptr, ptr %8, align 8, !tbaa !31
  %52 = getelementptr inbounds nuw %"class.ncnn::Option", ptr %51, i32 0, i32 1
  %53 = load i32, ptr %52, align 4, !tbaa !43
  call void @__kmpc_push_num_threads(ptr @2, i32 %15, i32 %53)
  %54 = load ptr, ptr %6, align 8, !tbaa !30
  %55 = load ptr, ptr %7, align 8, !tbaa !30
  call void (ptr, i32, ptr, ...) @__kmpc_fork_call(ptr @2, i32 7, ptr @_ZNK4ncnn17StatisticsPooling7forwardERKNS_3MatERS1_RKNS_6OptionE.omp_outlined.1, ptr %14, ptr %11, ptr %54, ptr %12, ptr %55, ptr %9, ptr %10)
  call void @llvm.lifetime.end.p0(i64 4, ptr %14) #6
  call void @llvm.lifetime.end.p0(i64 8, ptr %13) #6
  call void @llvm.lifetime.end.p0(i64 4, ptr %12) #6
  call void @llvm.lifetime.end.p0(i64 4, ptr %11) #6
  call void @llvm.lifetime.end.p0(i64 4, ptr %10) #6
  call void @llvm.lifetime.end.p0(i64 4, ptr %9) #6
  ret i32 0
}