; Function Attrs: mustprogress uwtable
define hidden noundef i32 @_ZNK4ncnn17StatisticsPooling7forwardERKNS_3MatERS1_RKNS_6OptionE(ptr noundef nonnull readonly align 8 captures(none) dereferenceable(212) %0, ptr noundef nonnull align 8 dereferenceable(72) %1, ptr noundef nonnull align 8 dereferenceable(72) %2, ptr noundef nonnull readonly align 8 captures(none) dereferenceable(64) %3) unnamed_addr #2 align 2 {
  %5 = alloca i32, align 4
  %6 = alloca i32, align 4
  %7 = alloca i32, align 4
  %8 = alloca i32, align 4
  %9 = alloca i32, align 4
  %10 = tail call i32 @__kmpc_global_thread_num(ptr nonnull @2)
  call void @llvm.lifetime.start.p0(i64 4, ptr nonnull %5) #6
  %11 = getelementptr inbounds nuw i8, ptr %1, i64 44
  %12 = load i32, ptr %11, align 4, !tbaa !26
  store i32 %12, ptr %5, align 4, !tbaa !29
  call void @llvm.lifetime.start.p0(i64 4, ptr nonnull %6) #6
  %13 = getelementptr inbounds nuw i8, ptr %1, i64 48
  %14 = load i32, ptr %13, align 8, !tbaa !30
  store i32 %14, ptr %6, align 4, !tbaa !29
  call void @llvm.lifetime.start.p0(i64 4, ptr nonnull %7) #6
  %15 = getelementptr inbounds nuw i8, ptr %1, i64 56
  %16 = load i32, ptr %15, align 8, !tbaa !31
  store i32 %16, ptr %7, align 4, !tbaa !29
  call void @llvm.lifetime.start.p0(i64 4, ptr nonnull %8) #6
  %17 = mul nsw i32 %14, %12
  store i32 %17, ptr %8, align 4, !tbaa !29
  %18 = getelementptr inbounds nuw i8, ptr %1, i64 16
  %19 = load i64, ptr %18, align 8, !tbaa !32
  call void @llvm.lifetime.start.p0(i64 4, ptr nonnull %9) #6
  store i32 %16, ptr %9, align 4, !tbaa !29
  %20 = getelementptr inbounds nuw i8, ptr %0, i64 208
  %21 = load i32, ptr %20, align 8, !tbaa !4
  %.not = icmp eq i32 %21, 0
  br i1 %.not, label %24, label %22

22:                                               ; preds = %4
  %23 = shl nsw i32 %16, 1
  store i32 %23, ptr %9, align 4, !tbaa !29
  br label %24

24:                                               ; preds = %22, %4
  %25 = phi i32 [ %23, %22 ], [ %16, %4 ]
  %26 = getelementptr inbounds nuw i8, ptr %3, i64 8
  %27 = load ptr, ptr %26, align 8, !tbaa !33
  tail call void @_ZN4ncnn3Mat6createEimPNS_9AllocatorE(ptr noundef nonnull align 8 dereferenceable(72) %2, i32 noundef %25, i64 noundef %19, ptr noundef %27)
  %28 = getelementptr inbounds nuw i8, ptr %3, i64 4
  %29 = load i32, ptr %28, align 4, !tbaa !35
  tail call void @__kmpc_push_num_threads(ptr nonnull @2, i32 %10, i32 %29)
  call void (ptr, i32, ptr, ...) @__kmpc_fork_call(ptr nonnull @2, i32 6, ptr nonnull @_ZNK4ncnn17StatisticsPooling7forwardERKNS_3MatERS1_RKNS_6OptionE.omp_outlined, ptr nonnull %7, ptr nonnull %1, ptr nonnull %8, ptr nonnull %2, ptr nonnull %5, ptr nonnull %6)
  %30 = load i32, ptr %28, align 4, !tbaa !35
  call void @__kmpc_push_num_threads(ptr nonnull @2, i32 %10, i32 %30)
  call void (ptr, i32, ptr, ...) @__kmpc_fork_call(ptr nonnull @2, i32 7, ptr nonnull @_ZNK4ncnn17StatisticsPooling7forwardERKNS_3MatERS1_RKNS_6OptionE.omp_outlined.1, ptr nonnull %9, ptr nonnull %7, ptr nonnull %1, ptr nonnull %8, ptr nonnull %2, ptr nonnull %5, ptr nonnull %6)
  call void @llvm.lifetime.end.p0(i64 4, ptr nonnull %9) #6
  call void @llvm.lifetime.end.p0(i64 4, ptr nonnull %8) #6
  call void @llvm.lifetime.end.p0(i64 4, ptr nonnull %7) #6
  call void @llvm.lifetime.end.p0(i64 4, ptr nonnull %6) #6
  call void @llvm.lifetime.end.p0(i64 4, ptr nonnull %5) #6
  ret i32 0
}